(dp1
S'sg_version_data'
p2
(dp3
S'code'
p4
S'v1.3.10'
p5
sS'description'
p6
S'[No wiki release notes found]'
p7
sS'tags'
p8
(lp9
sS'sg_payload'
p10
(dp11
S'name'
p12
S'tk-config-default2_v1.3.10.zip'
p13
sS'url'
p14
S'https://s3-proxy.shotgunstudio.com/d18c13bf0e59a9a82f18be518a1b6b508bcbd774/7e22bb8231b0520a41fd41280c993277bb00dddb/tk-config-default2_v1.3.10.zip?response-content-disposition=filename%3D%22tk-config-default2_v1.3.10.zip%22&x-amz-meta-user-id=42&x-amz-meta-user-type=ApiUser&X-Amz-Algorithm=AWS4-HMAC-SHA256&X-Amz-Credential=AKIAYJG6Z4JIW4LDLVRF%2F20200709%2Fus-west-2%2Fs3%2Faws4_request&X-Amz-Date=20200709T122623Z&X-Amz-Expires=900&X-Amz-SignedHeaders=host&X-Amz-Signature=3e56bd53e31a88b736094d575863537a56bf86522e4f7a982aff0e8e130df6ee'
p15
sS'content_type'
p16
S'application/zip'
p17
sS'type'
p18
S'Attachment'
p19
sS'id'
p20
I22500
sS'link_type'
p21
S'upload'
p22
ssS'sg_status_list'
p23
S'prod'
p24
sS'sg_detailed_release_notes'
p25
(dp26
S'name'
p27
S'v1.3.10'
p28
sS'url'
p29
S'https://support.shotgunsoftware.com/hc/en-us/articles/360042159573#1_3_10'
p30
sS'content_type'
p31
NsS'type'
p32
S'Attachment'
p33
sS'id'
p34
I22501
sS'link_type'
p35
S'web'
p36
ssS'sg_documentation'
p37
NsS'type'
p38
S'CustomNonProjectEntity08'
p39
sS'id'
p40
I1086
ssS'sg_bundle_data'
p41
(dp42
S'sg_status_list'
p43
S'hidden'
p44
sS'type'
p45
S'CustomNonProjectEntity07'
p46
sS'id'
p47
I81
sS'sg_system_name'
p48
S'tk-config-default2'
p49
sS'sg_deprecation_message'
p50
Nss.